target datalayout = "e-m:e-p270:32:32-p271:32:32-p272:64:64-i64:64-i128:128-f80:128-n8:16:32:64-S128"
target triple = "x86_64-unknown-linux-gnu"

%"class.spacer::model_node" = type <{ %class.ref, ptr, %class.ptr_vector, ptr, ptr, i32, i32, i8, [7 x i8] }>
%class.ref = type { ptr }
%class.ptr_vector = type { %class.vector }
%class.vector = type { ptr }

@.str = private unnamed_addr constant [113 x i8] c"generated/home/dtcxzyw/WorkSpace/Projects/compilers/llvm-opt-benchmark/bench/z3/z3/src/muz/spacer/spacer_pdr.cpp\00", align 1
@.str.1 = private unnamed_addr constant [29 x i8] c"UNEXPECTED CODE WAS REACHED.\00", align 1

; Function Attrs: mustprogress nounwind uwtable
define linkonce_odr hidden noundef nonnull align 8 dereferenceable(8) ptr @_ZNK6vectorIPN6spacer10model_nodeELb0EjE3getEj(ptr noundef nonnull align 8 dereferenceable(8) %this, i32 noundef %idx) #5 comdat align 2 {
entry:
  %this.addr = alloca ptr, align 8
  %idx.addr = alloca i32, align 4
  store ptr %this, ptr %this.addr, align 8
  store i32 %idx, ptr %idx.addr, align 4
  %this1 = load ptr, ptr %this.addr, align 8
  %m_data = getelementptr inbounds %class.vector, ptr %this1, i32 0, i32 0
  %0 = load ptr, ptr %m_data, align 8
  %1 = load i32, ptr %idx.addr, align 4
  %idxprom = zext i32 %1 to i64
  %arrayidx = getelementptr inbounds ptr, ptr %0, i64 %idxprom
  ret ptr %arrayidx
}

; Function Attrs: mustprogress nounwind uwtable
define linkonce_odr hidden noundef i32 @_ZNK6vectorIPN6spacer10model_nodeELb0EjE4sizeEv(ptr noundef nonnull align 8 dereferenceable(8) %this) #5 comdat align 2 {
entry:
  %retval = alloca i32, align 4
  %this.addr = alloca ptr, align 8
  store ptr %this, ptr %this.addr, align 8
  %this1 = load ptr, ptr %this.addr, align 8
  %m_data = getelementptr inbounds %class.vector, ptr %this1, i32 0, i32 0
  %0 = load ptr, ptr %m_data, align 8
  %cmp = icmp eq ptr %0, null
  br i1 %cmp, label %if.then, label %if.end

if.then:                                          ; preds = %entry
  store i32 0, ptr %retval, align 4
  br label %return

if.end:                                           ; preds = %entry
  %m_data2 = getelementptr inbounds %class.vector, ptr %this1, i32 0, i32 0
  %1 = load ptr, ptr %m_data2, align 8
  %arrayidx = getelementptr inbounds i32, ptr %1, i64 -1
  %2 = load i32, ptr %arrayidx, align 4
  store i32 %2, ptr %retval, align 4
  br label %return

return:                                           ; preds = %if.end, %if.then
  %3 = load i32, ptr %retval, align 4
  ret i32 %3
}

; Function Attrs: mustprogress nounwind uwtable
define linkonce_odr hidden noundef nonnull align 8 dereferenceable(8) ptr @_ZN6spacer10model_node8childrenEv(ptr noundef nonnull align 8 dereferenceable(49) %this) #5 comdat align 2 {
entry:
  %this.addr = alloca ptr, align 8
  store ptr %this, ptr %this.addr, align 8
  %this1 = load ptr, ptr %this.addr, align 8
  %m_children = getelementptr inbounds %"class.spacer::model_node", ptr %this1, i32 0, i32 2
  ret ptr %m_children
}

; Function Attrs: mustprogress uwtable
define hidden noundef i32 @_ZNK6spacer10model_node15index_in_parentEv(ptr noundef nonnull align 8 dereferenceable(49) %this) #4 align 2 {
entry:
  %retval = alloca i32, align 4
  %this.addr = alloca ptr, align 8
  %i = alloca i32, align 4
  %sz = alloca i32, align 4
  store ptr %this, ptr %this.addr, align 8
  %this1 = load ptr, ptr %this.addr, align 8
  %m_parent = getelementptr inbounds %"class.spacer::model_node", ptr %this1, i32 0, i32 1
  %0 = load ptr, ptr %m_parent, align 8
  %tobool = icmp ne ptr %0, null
  br i1 %tobool, label %if.end, label %if.then

if.then:                                          ; preds = %entry
  store i32 0, ptr %retval, align 4
  br label %return

if.end:                                           ; preds = %entry
  store i32 0, ptr %i, align 4
  %m_parent2 = getelementptr inbounds %"class.spacer::model_node", ptr %this1, i32 0, i32 1
  %1 = load ptr, ptr %m_parent2, align 8
  %call = call noundef nonnull align 8 dereferenceable(8) ptr @_ZN6spacer10model_node8childrenEv(ptr noundef nonnull align 8 dereferenceable(49) %1)
  %call3 = call noundef i32 @_ZNK6vectorIPN6spacer10model_nodeELb0EjE4sizeEv(ptr noundef nonnull align 8 dereferenceable(8) %call)
  store i32 %call3, ptr %sz, align 4
  br label %for.cond

for.cond:                                         ; preds = %for.inc, %if.end
  %2 = load i32, ptr %i, align 4
  %3 = load i32, ptr %sz, align 4
  %cmp = icmp ult i32 %2, %3
  br i1 %cmp, label %for.body, label %for.end

for.body:                                         ; preds = %for.cond
  %m_parent4 = getelementptr inbounds %"class.spacer::model_node", ptr %this1, i32 0, i32 1
  %4 = load ptr, ptr %m_parent4, align 8
  %call5 = call noundef nonnull align 8 dereferenceable(8) ptr @_ZN6spacer10model_node8childrenEv(ptr noundef nonnull align 8 dereferenceable(49) %4)
  %5 = load i32, ptr %i, align 4
  %call6 = call noundef nonnull align 8 dereferenceable(8) ptr @_ZNK6vectorIPN6spacer10model_nodeELb0EjE3getEj(ptr noundef nonnull align 8 dereferenceable(8) %call5, i32 noundef %5)
  %6 = load ptr, ptr %call6, align 8
  %cmp7 = icmp eq ptr %this1, %6
  br i1 %cmp7, label %if.then8, label %if.end9

if.then8:                                         ; preds = %for.body
  %7 = load i32, ptr %i, align 4
  store i32 %7, ptr %retval, align 4
  br label %return

if.end9:                                          ; preds = %for.body
  br label %for.inc

for.inc:                                          ; preds = %if.end9
  %8 = load i32, ptr %i, align 4
  %inc = add i32 %8, 1
  store i32 %inc, ptr %i, align 4
  br label %for.cond, !llvm.loop !6

for.end:                                          ; preds = %for.cond
  call void @_Z26notify_assertion_violationPKciS0_(ptr noundef @.str, i32 noundef 47, ptr noundef @.str.1)
  call void @exit(i32 noundef 114) #13
  unreachable

return:                                           ; preds = %if.then8, %if.then
  %9 = load i32, ptr %retval, align 4
  ret i32 %9
}