; Function Attrs: mustprogress uwtable
define hidden noundef i32 @_ZNK6spacer10model_node15index_in_parentEv(ptr noundef nonnull readonly align 8 dereferenceable(49) %this) local_unnamed_addr #3 align 2 {
entry:
  %m_parent = getelementptr inbounds i8, ptr %this, i64 8
  %0 = load ptr, ptr %m_parent, align 8
  %tobool.not = icmp eq ptr %0, null
  br i1 %tobool.not, label %return, label %if.end

if.end:                                           ; preds = %entry
  %m_children.i = getelementptr inbounds i8, ptr %0, i64 16
  %1 = load ptr, ptr %m_children.i, align 8
  %cmp.i = icmp eq ptr %1, null
  br i1 %cmp.i, label %for.end, label %_ZNK6vectorIPN6spacer10model_nodeELb0EjE4sizeEv.exit

_ZNK6vectorIPN6spacer10model_nodeELb0EjE4sizeEv.exit: ; preds = %if.end
  %arrayidx.i = getelementptr inbounds i8, ptr %1, i64 -4
  %2 = load i32, ptr %arrayidx.i, align 4
  %cmp8.not = icmp eq i32 %2, 0
  br i1 %cmp8.not, label %for.end, label %for.body

for.body:                                         ; preds = %_ZNK6vectorIPN6spacer10model_nodeELb0EjE4sizeEv.exit, %for.inc
  %i.09 = phi i32 [ %inc, %for.inc ], [ 0, %_ZNK6vectorIPN6spacer10model_nodeELb0EjE4sizeEv.exit ]
  %idxprom.i = zext i32 %i.09 to i64
  %arrayidx.i5 = getelementptr inbounds ptr, ptr %1, i64 %idxprom.i
  %3 = load ptr, ptr %arrayidx.i5, align 8
  %cmp7 = icmp eq ptr %3, %this
  br i1 %cmp7, label %return, label %for.inc

for.inc:                                          ; preds = %for.body
  %inc = add nuw i32 %i.09, 1
  %exitcond.not = icmp eq i32 %inc, %2
  br i1 %exitcond.not, label %for.end, label %for.body, !llvm.loop !6

for.end:                                          ; preds = %for.inc, %if.end, %_ZNK6vectorIPN6spacer10model_nodeELb0EjE4sizeEv.exit
  tail call void @_Z26notify_assertion_violationPKciS0_(ptr noundef nonnull @.str, i32 noundef 47, ptr noundef nonnull @.str.1)
  tail call void @exit(i32 noundef 114) #19
  unreachable

return:                                           ; preds = %for.body, %entry
  %retval.0 = phi i32 [ 0, %entry ], [ %i.09, %for.body ]
  ret i32 %retval.0
}